; Function Attrs: nounwind uwtable
define ptr @l_Lean_Server_Completion_dotIdCompletion___lambda__4(ptr noundef %0, ptr noundef %1, ptr noundef %2, ptr noundef %3, ptr noundef readonly captures(none) %4, ptr noundef %5, ptr readnone captures(none) %6, ptr noundef %7, ptr noundef %8, ptr noundef %9, ptr noundef %10, ptr noundef %11) local_unnamed_addr #0 {
  %13 = tail call ptr @l_Lean_Name_getPrefix(ptr noundef %2) #5
  %14 = tail call ptr @l_Lean_RBNode_findCore___at_Lean_Server_Completion_dotCompletion___spec__1(ptr noundef %1, ptr noundef %13)
  %15 = ptrtoint ptr %14 to i64
  %16 = and i64 %15, 1
  %.not.i44 = icmp eq i64 %16, 0
  br i1 %.not.i44, label %lean_obj_tag.exit.thread, label %lean_obj_tag.exit

lean_obj_tag.exit:                                ; preds = %12
  %17 = and i64 %15, 8589934590
  %18 = icmp eq i64 %17, 0
  br i1 %18, label %21, label %lean_dec.exit

lean_obj_tag.exit.thread:                         ; preds = %12
  %19 = getelementptr i8, ptr %14, i64 4
  %.val.i = load i32, ptr %19, align 4
  %20 = icmp ult i32 %.val.i, 16777216
  br i1 %20, label %21, label %.thread

21:                                               ; preds = %lean_obj_tag.exit.thread, %lean_obj_tag.exit
  %22 = ptrtoint ptr %10 to i64
  %23 = and i64 %22, 1
  %.not = icmp eq i64 %23, 0
  br i1 %.not, label %24, label %lean_dec.exit33

24:                                               ; preds = %21
  %25 = load i32, ptr %10, align 4, !tbaa !8
  %26 = icmp sgt i32 %25, 1
  br i1 %26, label %27, label %29, !prof !11

27:                                               ; preds = %24
  %28 = add nsw i32 %25, -1
  store i32 %28, ptr %10, align 4, !tbaa !8
  br label %lean_dec.exit33

29:                                               ; preds = %24
  %.not.i = icmp eq i32 %25, 0
  br i1 %.not.i, label %lean_dec.exit33, label %30

30:                                               ; preds = %29
  tail call void @lean_dec_ref_cold(ptr noundef nonnull %10) #5
  br label %lean_dec.exit33

lean_dec.exit33:                                  ; preds = %30, %29, %27, %21
  %31 = ptrtoint ptr %9 to i64
  %32 = and i64 %31, 1
  %.not46 = icmp eq i64 %32, 0
  br i1 %.not46, label %33, label %lean_dec.exit32

33:                                               ; preds = %lean_dec.exit33
  %34 = load i32, ptr %9, align 4, !tbaa !8
  %35 = icmp sgt i32 %34, 1
  br i1 %35, label %36, label %38, !prof !11

36:                                               ; preds = %33
  %37 = add nsw i32 %34, -1
  store i32 %37, ptr %9, align 4, !tbaa !8
  br label %lean_dec.exit32

38:                                               ; preds = %33
  %.not.i34 = icmp eq i32 %34, 0
  br i1 %.not.i34, label %lean_dec.exit32, label %39

39:                                               ; preds = %38
  tail call void @lean_dec_ref_cold(ptr noundef nonnull %9) #5
  br label %lean_dec.exit32

lean_dec.exit32:                                  ; preds = %39, %38, %36, %lean_dec.exit33
  %40 = ptrtoint ptr %8 to i64
  %41 = and i64 %40, 1
  %.not47 = icmp eq i64 %41, 0
  br i1 %.not47, label %42, label %lean_dec.exit31

42:                                               ; preds = %lean_dec.exit32
  %43 = load i32, ptr %8, align 4, !tbaa !8
  %44 = icmp sgt i32 %43, 1
  br i1 %44, label %45, label %47, !prof !11

45:                                               ; preds = %42
  %46 = add nsw i32 %43, -1
  store i32 %46, ptr %8, align 4, !tbaa !8
  br label %lean_dec.exit31

47:                                               ; preds = %42
  %.not.i36 = icmp eq i32 %43, 0
  br i1 %.not.i36, label %lean_dec.exit31, label %48

48:                                               ; preds = %47
  tail call void @lean_dec_ref_cold(ptr noundef nonnull %8) #5
  br label %lean_dec.exit31

lean_dec.exit31:                                  ; preds = %48, %47, %45, %lean_dec.exit32
  %49 = ptrtoint ptr %7 to i64
  %50 = and i64 %49, 1
  %.not48 = icmp eq i64 %50, 0
  br i1 %.not48, label %51, label %lean_dec.exit30

51:                                               ; preds = %lean_dec.exit31
  %52 = load i32, ptr %7, align 4, !tbaa !8
  %53 = icmp sgt i32 %52, 1
  br i1 %53, label %54, label %56, !prof !11

54:                                               ; preds = %51
  %55 = add nsw i32 %52, -1
  store i32 %55, ptr %7, align 4, !tbaa !8
  br label %lean_dec.exit30

56:                                               ; preds = %51
  %.not.i38 = icmp eq i32 %52, 0
  br i1 %.not.i38, label %lean_dec.exit30, label %57

57:                                               ; preds = %56
  tail call void @lean_dec_ref_cold(ptr noundef nonnull %7) #5
  br label %lean_dec.exit30

lean_dec.exit30:                                  ; preds = %57, %56, %54, %lean_dec.exit31
  %58 = ptrtoint ptr %2 to i64
  %59 = and i64 %58, 1
  %.not49 = icmp eq i64 %59, 0
  br i1 %.not49, label %60, label %lean_dec.exit29

60:                                               ; preds = %lean_dec.exit30
  %61 = load i32, ptr %2, align 4, !tbaa !8
  %62 = icmp sgt i32 %61, 1
  br i1 %62, label %63, label %65, !prof !11

63:                                               ; preds = %60
  %64 = add nsw i32 %61, -1
  store i32 %64, ptr %2, align 4, !tbaa !8
  br label %lean_dec.exit29

65:                                               ; preds = %60
  %.not.i40 = icmp eq i32 %61, 0
  br i1 %.not.i40, label %lean_dec.exit29, label %66

66:                                               ; preds = %65
  tail call void @lean_dec_ref_cold(ptr noundef nonnull %2) #5
  br label %lean_dec.exit29

lean_dec.exit29:                                  ; preds = %66, %65, %63, %lean_dec.exit30
  %67 = load ptr, ptr @l___private_Lean_Server_Completion_CompletionCollectors_0__Lean_Server_Completion_addItem___closed__1, align 8, !tbaa !4
  tail call void @lean_inc_heartbeat() #5
  %68 = tail call noalias ptr @mi_malloc_small(i64 noundef 24) #5
  %69 = icmp eq ptr %68, null
  br i1 %69, label %70, label %lean_alloc_ctor.exit

70:                                               ; preds = %lean_dec.exit29
  tail call void @lean_internal_panic_out_of_memory() #6
  unreachable

lean_alloc_ctor.exit:                             ; preds = %lean_dec.exit29
  %71 = getelementptr inbounds nuw i8, ptr %68, i64 4
  store i32 1, ptr %68, align 4, !tbaa !8
  store i32 131096, ptr %71, align 4
  %72 = getelementptr inbounds nuw i8, ptr %68, i64 8
  store ptr %67, ptr %72, align 8, !tbaa !4
  %73 = getelementptr inbounds nuw i8, ptr %68, i64 16
  store ptr %11, ptr %73, align 8, !tbaa !4
  br label %81

.thread:                                          ; preds = %lean_obj_tag.exit.thread
  %74 = load i32, ptr %14, align 4, !tbaa !8
  %75 = icmp sgt i32 %74, 1
  br i1 %75, label %76, label %78, !prof !11

76:                                               ; preds = %.thread
  %77 = add nsw i32 %74, -1
  store i32 %77, ptr %14, align 4, !tbaa !8
  br label %lean_dec.exit

78:                                               ; preds = %.thread
  %.not.i42 = icmp eq i32 %74, 0
  br i1 %.not.i42, label %lean_dec.exit, label %79

79:                                               ; preds = %78
  tail call void @lean_dec_ref_cold(ptr noundef nonnull %14) #5
  br label %lean_dec.exit

lean_dec.exit:                                    ; preds = %lean_obj_tag.exit, %79, %78, %76
  %80 = tail call ptr @l_Lean_Server_Completion_dotIdCompletion___lambda__3(ptr noundef %2, ptr noundef %3, ptr noundef %0, ptr nonnull poison, ptr noundef %4, ptr noundef %5, ptr poison, ptr noundef %7, ptr noundef %8, ptr noundef %9, ptr noundef %10, ptr noundef %11)
  br label %81

81:                                               ; preds = %lean_dec.exit, %lean_alloc_ctor.exit
  %.0 = phi ptr [ %68, %lean_alloc_ctor.exit ], [ %80, %lean_dec.exit ]
  ret ptr %.0
}